
user/_attack:     file format elf64-littleriscv


Disassembly of section .text:

0000000000000000 <main>:
#include "user/user.h"
#include "kernel/riscv.h"

int
main(int argc, char *argv[])
{
   0:	1141                	addi	sp,sp,-16
   2:	e406                	sd	ra,8(sp)
   4:	e022                	sd	s0,0(sp)
   6:	0800                	addi	s0,sp,16
  // Your code here.

  exit(1);
   8:	4505                	li	a0,1
   a:	2a4000ef          	jal	ra,2ae <exit>

000000000000000e <start>:
//
// wrapper so that it's OK if main() does not call exit().
//
void
start()
{
   e:	1141                	addi	sp,sp,-16
  10:	e406                	sd	ra,8(sp)
  12:	e022                	sd	s0,0(sp)
  14:	0800                	addi	s0,sp,16
  extern int main();
  main();
  16:	febff0ef          	jal	ra,0 <main>
  exit(0);
  1a:	4501                	li	a0,0
  1c:	292000ef          	jal	ra,2ae <exit>

0000000000000020 <strcpy>:
}

char*
strcpy(char *s, const char *t)
{
  20:	1141                	addi	sp,sp,-16
  22:	e422                	sd	s0,8(sp)
  24:	0800                	addi	s0,sp,16
  char *os;

  os = s;
  while((*s++ = *t++) != 0)
  26:	87aa                	mv	a5,a0
  28:	0585                	addi	a1,a1,1
  2a:	0785                	addi	a5,a5,1
  2c:	fff5c703          	lbu	a4,-1(a1)
  30:	fee78fa3          	sb	a4,-1(a5)
  34:	fb75                	bnez	a4,28 <strcpy+0x8>
    ;
  return os;
}
  36:	6422                	ld	s0,8(sp)
  38:	0141                	addi	sp,sp,16
  3a:	8082                	ret

000000000000003c <strcmp>:

int
strcmp(const char *p, const char *q)
{
  3c:	1141                	addi	sp,sp,-16
  3e:	e422                	sd	s0,8(sp)
  40:	0800                	addi	s0,sp,16
  while(*p && *p == *q)
  42:	00054783          	lbu	a5,0(a0)
  46:	cb91                	beqz	a5,5a <strcmp+0x1e>
  48:	0005c703          	lbu	a4,0(a1)
  4c:	00f71763          	bne	a4,a5,5a <strcmp+0x1e>
    p++, q++;
  50:	0505                	addi	a0,a0,1
  52:	0585                	addi	a1,a1,1
  while(*p && *p == *q)
  54:	00054783          	lbu	a5,0(a0)
  58:	fbe5                	bnez	a5,48 <strcmp+0xc>
  return (uchar)*p - (uchar)*q;
  5a:	0005c503          	lbu	a0,0(a1)
}
  5e:	40a7853b          	subw	a0,a5,a0
  62:	6422                	ld	s0,8(sp)
  64:	0141                	addi	sp,sp,16
  66:	8082                	ret

0000000000000068 <strlen>:

uint
strlen(const char *s)
{
  68:	1141                	addi	sp,sp,-16
  6a:	e422                	sd	s0,8(sp)
  6c:	0800                	addi	s0,sp,16
  int n;

  for(n = 0; s[n]; n++)
  6e:	00054783          	lbu	a5,0(a0)
  72:	cf91                	beqz	a5,8e <strlen+0x26>
  74:	0505                	addi	a0,a0,1
  76:	87aa                	mv	a5,a0
  78:	4685                	li	a3,1
  7a:	9e89                	subw	a3,a3,a0
  7c:	00f6853b          	addw	a0,a3,a5
  80:	0785                	addi	a5,a5,1
  82:	fff7c703          	lbu	a4,-1(a5)
  86:	fb7d                	bnez	a4,7c <strlen+0x14>
    ;
  return n;
}
  88:	6422                	ld	s0,8(sp)
  8a:	0141                	addi	sp,sp,16
  8c:	8082                	ret
  for(n = 0; s[n]; n++)
  8e:	4501                	li	a0,0
  90:	bfe5                	j	88 <strlen+0x20>

0000000000000092 <memset>:

void*
memset(void *dst, int c, uint n)
{
  92:	1141                	addi	sp,sp,-16
  94:	e422                	sd	s0,8(sp)
  96:	0800                	addi	s0,sp,16
  char *cdst = (char *) dst;
  int i;
  for(i = 0; i < n; i++){
  98:	ce09                	beqz	a2,b2 <memset+0x20>
  9a:	87aa                	mv	a5,a0
  9c:	fff6071b          	addiw	a4,a2,-1
  a0:	1702                	slli	a4,a4,0x20
  a2:	9301                	srli	a4,a4,0x20
  a4:	0705                	addi	a4,a4,1
  a6:	972a                	add	a4,a4,a0
    cdst[i] = c;
  a8:	00b78023          	sb	a1,0(a5)
  for(i = 0; i < n; i++){
  ac:	0785                	addi	a5,a5,1
  ae:	fee79de3          	bne	a5,a4,a8 <memset+0x16>
  }
  return dst;
}
  b2:	6422                	ld	s0,8(sp)
  b4:	0141                	addi	sp,sp,16
  b6:	8082                	ret

00000000000000b8 <strchr>:

char*
strchr(const char *s, char c)
{
  b8:	1141                	addi	sp,sp,-16
  ba:	e422                	sd	s0,8(sp)
  bc:	0800                	addi	s0,sp,16
  for(; *s; s++)
  be:	00054783          	lbu	a5,0(a0)
  c2:	cb99                	beqz	a5,d8 <strchr+0x20>
    if(*s == c)
  c4:	00f58763          	beq	a1,a5,d2 <strchr+0x1a>
  for(; *s; s++)
  c8:	0505                	addi	a0,a0,1
  ca:	00054783          	lbu	a5,0(a0)
  ce:	fbfd                	bnez	a5,c4 <strchr+0xc>
      return (char*)s;
  return 0;
  d0:	4501                	li	a0,0
}
  d2:	6422                	ld	s0,8(sp)
  d4:	0141                	addi	sp,sp,16
  d6:	8082                	ret
  return 0;
  d8:	4501                	li	a0,0
  da:	bfe5                	j	d2 <strchr+0x1a>

00000000000000dc <gets>:

char*
gets(char *buf, int max)
{
  dc:	711d                	addi	sp,sp,-96
  de:	ec86                	sd	ra,88(sp)
  e0:	e8a2                	sd	s0,80(sp)
  e2:	e4a6                	sd	s1,72(sp)
  e4:	e0ca                	sd	s2,64(sp)
  e6:	fc4e                	sd	s3,56(sp)
  e8:	f852                	sd	s4,48(sp)
  ea:	f456                	sd	s5,40(sp)
  ec:	f05a                	sd	s6,32(sp)
  ee:	ec5e                	sd	s7,24(sp)
  f0:	1080                	addi	s0,sp,96
  f2:	8baa                	mv	s7,a0
  f4:	8a2e                	mv	s4,a1
  int i, cc;
  char c;

  for(i=0; i+1 < max; ){
  f6:	892a                	mv	s2,a0
  f8:	4481                	li	s1,0
    cc = read(0, &c, 1);
    if(cc < 1)
      break;
    buf[i++] = c;
    if(c == '\n' || c == '\r')
  fa:	4aa9                	li	s5,10
  fc:	4b35                	li	s6,13
  for(i=0; i+1 < max; ){
  fe:	89a6                	mv	s3,s1
 100:	2485                	addiw	s1,s1,1
 102:	0344d663          	bge	s1,s4,12e <gets+0x52>
    cc = read(0, &c, 1);
 106:	4605                	li	a2,1
 108:	faf40593          	addi	a1,s0,-81
 10c:	4501                	li	a0,0
 10e:	1b8000ef          	jal	ra,2c6 <read>
    if(cc < 1)
 112:	00a05e63          	blez	a0,12e <gets+0x52>
    buf[i++] = c;
 116:	faf44783          	lbu	a5,-81(s0)
 11a:	00f90023          	sb	a5,0(s2)
    if(c == '\n' || c == '\r')
 11e:	01578763          	beq	a5,s5,12c <gets+0x50>
 122:	0905                	addi	s2,s2,1
 124:	fd679de3          	bne	a5,s6,fe <gets+0x22>
  for(i=0; i+1 < max; ){
 128:	89a6                	mv	s3,s1
 12a:	a011                	j	12e <gets+0x52>
 12c:	89a6                	mv	s3,s1
      break;
  }
  buf[i] = '\0';
 12e:	99de                	add	s3,s3,s7
 130:	00098023          	sb	zero,0(s3)
  return buf;
}
 134:	855e                	mv	a0,s7
 136:	60e6                	ld	ra,88(sp)
 138:	6446                	ld	s0,80(sp)
 13a:	64a6                	ld	s1,72(sp)
 13c:	6906                	ld	s2,64(sp)
 13e:	79e2                	ld	s3,56(sp)
 140:	7a42                	ld	s4,48(sp)
 142:	7aa2                	ld	s5,40(sp)
 144:	7b02                	ld	s6,32(sp)
 146:	6be2                	ld	s7,24(sp)
 148:	6125                	addi	sp,sp,96
 14a:	8082                	ret

000000000000014c <stat>:

int
stat(const char *n, struct stat *st)
{
 14c:	1101                	addi	sp,sp,-32
 14e:	ec06                	sd	ra,24(sp)
 150:	e822                	sd	s0,16(sp)
 152:	e426                	sd	s1,8(sp)
 154:	e04a                	sd	s2,0(sp)
 156:	1000                	addi	s0,sp,32
 158:	892e                	mv	s2,a1
  int fd;
  int r;

  fd = open(n, O_RDONLY);
 15a:	4581                	li	a1,0
 15c:	192000ef          	jal	ra,2ee <open>
  if(fd < 0)
 160:	02054163          	bltz	a0,182 <stat+0x36>
 164:	84aa                	mv	s1,a0
    return -1;
  r = fstat(fd, st);
 166:	85ca                	mv	a1,s2
 168:	19e000ef          	jal	ra,306 <fstat>
 16c:	892a                	mv	s2,a0
  close(fd);
 16e:	8526                	mv	a0,s1
 170:	166000ef          	jal	ra,2d6 <close>
  return r;
}
 174:	854a                	mv	a0,s2
 176:	60e2                	ld	ra,24(sp)
 178:	6442                	ld	s0,16(sp)
 17a:	64a2                	ld	s1,8(sp)
 17c:	6902                	ld	s2,0(sp)
 17e:	6105                	addi	sp,sp,32
 180:	8082                	ret
    return -1;
 182:	597d                	li	s2,-1
 184:	bfc5                	j	174 <stat+0x28>

0000000000000186 <atoi>:

int
atoi(const char *s)
{
 186:	1141                	addi	sp,sp,-16
 188:	e422                	sd	s0,8(sp)
 18a:	0800                	addi	s0,sp,16
  int n;

  n = 0;
  while('0' <= *s && *s <= '9')
 18c:	00054603          	lbu	a2,0(a0)
 190:	fd06079b          	addiw	a5,a2,-48
 194:	0ff7f793          	andi	a5,a5,255
 198:	4725                	li	a4,9
 19a:	02f76963          	bltu	a4,a5,1cc <atoi+0x46>
 19e:	86aa                	mv	a3,a0
  n = 0;
 1a0:	4501                	li	a0,0
  while('0' <= *s && *s <= '9')
 1a2:	45a5                	li	a1,9
    n = n*10 + *s++ - '0';
 1a4:	0685                	addi	a3,a3,1
 1a6:	0025179b          	slliw	a5,a0,0x2
 1aa:	9fa9                	addw	a5,a5,a0
 1ac:	0017979b          	slliw	a5,a5,0x1
 1b0:	9fb1                	addw	a5,a5,a2
 1b2:	fd07851b          	addiw	a0,a5,-48
  while('0' <= *s && *s <= '9')
 1b6:	0006c603          	lbu	a2,0(a3)
 1ba:	fd06071b          	addiw	a4,a2,-48
 1be:	0ff77713          	andi	a4,a4,255
 1c2:	fee5f1e3          	bgeu	a1,a4,1a4 <atoi+0x1e>
  return n;
}
 1c6:	6422                	ld	s0,8(sp)
 1c8:	0141                	addi	sp,sp,16
 1ca:	8082                	ret
  n = 0;
 1cc:	4501                	li	a0,0
 1ce:	bfe5                	j	1c6 <atoi+0x40>

00000000000001d0 <memmove>:

void*
memmove(void *vdst, const void *vsrc, int n)
{
 1d0:	1141                	addi	sp,sp,-16
 1d2:	e422                	sd	s0,8(sp)
 1d4:	0800                	addi	s0,sp,16
  char *dst;
  const char *src;

  dst = vdst;
  src = vsrc;
  if (src > dst) {
 1d6:	02b57663          	bgeu	a0,a1,202 <memmove+0x32>
    while(n-- > 0)
 1da:	02c05163          	blez	a2,1fc <memmove+0x2c>
 1de:	fff6079b          	addiw	a5,a2,-1
 1e2:	1782                	slli	a5,a5,0x20
 1e4:	9381                	srli	a5,a5,0x20
 1e6:	0785                	addi	a5,a5,1
 1e8:	97aa                	add	a5,a5,a0
  dst = vdst;
 1ea:	872a                	mv	a4,a0
      *dst++ = *src++;
 1ec:	0585                	addi	a1,a1,1
 1ee:	0705                	addi	a4,a4,1
 1f0:	fff5c683          	lbu	a3,-1(a1)
 1f4:	fed70fa3          	sb	a3,-1(a4)
    while(n-- > 0)
 1f8:	fee79ae3          	bne	a5,a4,1ec <memmove+0x1c>
    src += n;
    while(n-- > 0)
      *--dst = *--src;
  }
  return vdst;
}
 1fc:	6422                	ld	s0,8(sp)
 1fe:	0141                	addi	sp,sp,16
 200:	8082                	ret
    dst += n;
 202:	00c50733          	add	a4,a0,a2
    src += n;
 206:	95b2                	add	a1,a1,a2
    while(n-- > 0)
 208:	fec05ae3          	blez	a2,1fc <memmove+0x2c>
 20c:	fff6079b          	addiw	a5,a2,-1
 210:	1782                	slli	a5,a5,0x20
 212:	9381                	srli	a5,a5,0x20
 214:	fff7c793          	not	a5,a5
 218:	97ba                	add	a5,a5,a4
      *--dst = *--src;
 21a:	15fd                	addi	a1,a1,-1
 21c:	177d                	addi	a4,a4,-1
 21e:	0005c683          	lbu	a3,0(a1)
 222:	00d70023          	sb	a3,0(a4)
    while(n-- > 0)
 226:	fee79ae3          	bne	a5,a4,21a <memmove+0x4a>
 22a:	bfc9                	j	1fc <memmove+0x2c>

000000000000022c <memcmp>:

int
memcmp(const void *s1, const void *s2, uint n)
{
 22c:	1141                	addi	sp,sp,-16
 22e:	e422                	sd	s0,8(sp)
 230:	0800                	addi	s0,sp,16
  const char *p1 = s1, *p2 = s2;
  while (n-- > 0) {
 232:	ca05                	beqz	a2,262 <memcmp+0x36>
 234:	fff6069b          	addiw	a3,a2,-1
 238:	1682                	slli	a3,a3,0x20
 23a:	9281                	srli	a3,a3,0x20
 23c:	0685                	addi	a3,a3,1
 23e:	96aa                	add	a3,a3,a0
    if (*p1 != *p2) {
 240:	00054783          	lbu	a5,0(a0)
 244:	0005c703          	lbu	a4,0(a1)
 248:	00e79863          	bne	a5,a4,258 <memcmp+0x2c>
      return *p1 - *p2;
    }
    p1++;
 24c:	0505                	addi	a0,a0,1
    p2++;
 24e:	0585                	addi	a1,a1,1
  while (n-- > 0) {
 250:	fed518e3          	bne	a0,a3,240 <memcmp+0x14>
  }
  return 0;
 254:	4501                	li	a0,0
 256:	a019                	j	25c <memcmp+0x30>
      return *p1 - *p2;
 258:	40e7853b          	subw	a0,a5,a4
}
 25c:	6422                	ld	s0,8(sp)
 25e:	0141                	addi	sp,sp,16
 260:	8082                	ret
  return 0;
 262:	4501                	li	a0,0
 264:	bfe5                	j	25c <memcmp+0x30>

0000000000000266 <memcpy>:

void *
memcpy(void *dst, const void *src, uint n)
{
 266:	1141                	addi	sp,sp,-16
 268:	e406                	sd	ra,8(sp)
 26a:	e022                	sd	s0,0(sp)
 26c:	0800                	addi	s0,sp,16
  return memmove(dst, src, n);
 26e:	f63ff0ef          	jal	ra,1d0 <memmove>
}
 272:	60a2                	ld	ra,8(sp)
 274:	6402                	ld	s0,0(sp)
 276:	0141                	addi	sp,sp,16
 278:	8082                	ret

000000000000027a <sbrk>:

char *
sbrk(int n) {
 27a:	1141                	addi	sp,sp,-16
 27c:	e406                	sd	ra,8(sp)
 27e:	e022                	sd	s0,0(sp)
 280:	0800                	addi	s0,sp,16
  return sys_sbrk(n, SBRK_EAGER);
 282:	4585                	li	a1,1
 284:	0b2000ef          	jal	ra,336 <sys_sbrk>
}
 288:	60a2                	ld	ra,8(sp)
 28a:	6402                	ld	s0,0(sp)
 28c:	0141                	addi	sp,sp,16
 28e:	8082                	ret

0000000000000290 <sbrklazy>:

char *
sbrklazy(int n) {
 290:	1141                	addi	sp,sp,-16
 292:	e406                	sd	ra,8(sp)
 294:	e022                	sd	s0,0(sp)
 296:	0800                	addi	s0,sp,16
  return sys_sbrk(n, SBRK_LAZY);
 298:	4589                	li	a1,2
 29a:	09c000ef          	jal	ra,336 <sys_sbrk>
}
 29e:	60a2                	ld	ra,8(sp)
 2a0:	6402                	ld	s0,0(sp)
 2a2:	0141                	addi	sp,sp,16
 2a4:	8082                	ret

00000000000002a6 <fork>:
# generated by usys.pl - do not edit
#include "kernel/syscall.h"
.global fork
fork:
 li a7, SYS_fork
 2a6:	4885                	li	a7,1
 ecall
 2a8:	00000073          	ecall
 ret
 2ac:	8082                	ret

00000000000002ae <exit>:
.global exit
exit:
 li a7, SYS_exit
 2ae:	4889                	li	a7,2
 ecall
 2b0:	00000073          	ecall
 ret
 2b4:	8082                	ret

00000000000002b6 <wait>:
.global wait
wait:
 li a7, SYS_wait
 2b6:	488d                	li	a7,3
 ecall
 2b8:	00000073          	ecall
 ret
 2bc:	8082                	ret

00000000000002be <pipe>:
.global pipe
pipe:
 li a7, SYS_pipe
 2be:	4891                	li	a7,4
 ecall
 2c0:	00000073          	ecall
 ret
 2c4:	8082                	ret

00000000000002c6 <read>:
.global read
read:
 li a7, SYS_read
 2c6:	4895                	li	a7,5
 ecall
 2c8:	00000073          	ecall
 ret
 2cc:	8082                	ret

00000000000002ce <write>:
.global write
write:
 li a7, SYS_write
 2ce:	48c1                	li	a7,16
 ecall
 2d0:	00000073          	ecall
 ret
 2d4:	8082                	ret

00000000000002d6 <close>:
.global close
close:
 li a7, SYS_close
 2d6:	48d5                	li	a7,21
 ecall
 2d8:	00000073          	ecall
 ret
 2dc:	8082                	ret

00000000000002de <kill>:
.global kill
kill:
 li a7, SYS_kill
 2de:	4899                	li	a7,6
 ecall
 2e0:	00000073          	ecall
 ret
 2e4:	8082                	ret

00000000000002e6 <exec>:
.global exec
exec:
 li a7, SYS_exec
 2e6:	489d                	li	a7,7
 ecall
 2e8:	00000073          	ecall
 ret
 2ec:	8082                	ret

00000000000002ee <open>:
.global open
open:
 li a7, SYS_open
 2ee:	48bd                	li	a7,15
 ecall
 2f0:	00000073          	ecall
 ret
 2f4:	8082                	ret

00000000000002f6 <mknod>:
.global mknod
mknod:
 li a7, SYS_mknod
 2f6:	48c5                	li	a7,17
 ecall
 2f8:	00000073          	ecall
 ret
 2fc:	8082                	ret

00000000000002fe <unlink>:
.global unlink
unlink:
 li a7, SYS_unlink
 2fe:	48c9                	li	a7,18
 ecall
 300:	00000073          	ecall
 ret
 304:	8082                	ret

0000000000000306 <fstat>:
.global fstat
fstat:
 li a7, SYS_fstat
 306:	48a1                	li	a7,8
 ecall
 308:	00000073          	ecall
 ret
 30c:	8082                	ret

000000000000030e <link>:
.global link
link:
 li a7, SYS_link
 30e:	48cd                	li	a7,19
 ecall
 310:	00000073          	ecall
 ret
 314:	8082                	ret

0000000000000316 <mkdir>:
.global mkdir
mkdir:
 li a7, SYS_mkdir
 316:	48d1                	li	a7,20
 ecall
 318:	00000073          	ecall
 ret
 31c:	8082                	ret

000000000000031e <chdir>:
.global chdir
chdir:
 li a7, SYS_chdir
 31e:	48a5                	li	a7,9
 ecall
 320:	00000073          	ecall
 ret
 324:	8082                	ret

0000000000000326 <dup>:
.global dup
dup:
 li a7, SYS_dup
 326:	48a9                	li	a7,10
 ecall
 328:	00000073          	ecall
 ret
 32c:	8082                	ret

000000000000032e <getpid>:
.global getpid
getpid:
 li a7, SYS_getpid
 32e:	48ad                	li	a7,11
 ecall
 330:	00000073          	ecall
 ret
 334:	8082                	ret

0000000000000336 <sys_sbrk>:
.global sys_sbrk
sys_sbrk:
 li a7, SYS_sbrk
 336:	48b1                	li	a7,12
 ecall
 338:	00000073          	ecall
 ret
 33c:	8082                	ret

000000000000033e <pause>:
.global pause
pause:
 li a7, SYS_pause
 33e:	48b5                	li	a7,13
 ecall
 340:	00000073          	ecall
 ret
 344:	8082                	ret

0000000000000346 <uptime>:
.global uptime
uptime:
 li a7, SYS_uptime
 346:	48b9                	li	a7,14
 ecall
 348:	00000073          	ecall
 ret
 34c:	8082                	ret

000000000000034e <putc>:

static char digits[] = "0123456789ABCDEF";

static void
putc(int fd, char c)
{
 34e:	1101                	addi	sp,sp,-32
 350:	ec06                	sd	ra,24(sp)
 352:	e822                	sd	s0,16(sp)
 354:	1000                	addi	s0,sp,32
 356:	feb407a3          	sb	a1,-17(s0)
  write(fd, &c, 1);
 35a:	4605                	li	a2,1
 35c:	fef40593          	addi	a1,s0,-17
 360:	f6fff0ef          	jal	ra,2ce <write>
}
 364:	60e2                	ld	ra,24(sp)
 366:	6442                	ld	s0,16(sp)
 368:	6105                	addi	sp,sp,32
 36a:	8082                	ret

000000000000036c <printint>:

static void
printint(int fd, long long xx, int base, int sgn)
{
 36c:	715d                	addi	sp,sp,-80
 36e:	e486                	sd	ra,72(sp)
 370:	e0a2                	sd	s0,64(sp)
 372:	fc26                	sd	s1,56(sp)
 374:	f84a                	sd	s2,48(sp)
 376:	f44e                	sd	s3,40(sp)
 378:	0880                	addi	s0,sp,80
 37a:	84aa                	mv	s1,a0
  char buf[20];
  int i, neg;
  uint x;

  neg = 0;
  if(sgn && xx < 0){
 37c:	c299                	beqz	a3,382 <printint+0x16>
 37e:	0805c663          	bltz	a1,40a <printint+0x9e>
    neg = 1;
    x = -xx;
  } else {
    x = xx;
 382:	2581                	sext.w	a1,a1
  neg = 0;
 384:	4881                	li	a7,0
 386:	fb840693          	addi	a3,s0,-72
  }

  i = 0;
 38a:	4701                	li	a4,0
  do{
    buf[i++] = digits[x % base];
 38c:	2601                	sext.w	a2,a2
 38e:	00000517          	auipc	a0,0x0
 392:	4ea50513          	addi	a0,a0,1258 # 878 <digits>
 396:	883a                	mv	a6,a4
 398:	2705                	addiw	a4,a4,1
 39a:	02c5f7bb          	remuw	a5,a1,a2
 39e:	1782                	slli	a5,a5,0x20
 3a0:	9381                	srli	a5,a5,0x20
 3a2:	97aa                	add	a5,a5,a0
 3a4:	0007c783          	lbu	a5,0(a5)
 3a8:	00f68023          	sb	a5,0(a3)
  }while((x /= base) != 0);
 3ac:	0005879b          	sext.w	a5,a1
 3b0:	02c5d5bb          	divuw	a1,a1,a2
 3b4:	0685                	addi	a3,a3,1
 3b6:	fec7f0e3          	bgeu	a5,a2,396 <printint+0x2a>
  if(neg)
 3ba:	00088b63          	beqz	a7,3d0 <printint+0x64>
    buf[i++] = '-';
 3be:	fd040793          	addi	a5,s0,-48
 3c2:	973e                	add	a4,a4,a5
 3c4:	02d00793          	li	a5,45
 3c8:	fef70423          	sb	a5,-24(a4)
 3cc:	0028071b          	addiw	a4,a6,2

  while(--i >= 0)
 3d0:	02e05663          	blez	a4,3fc <printint+0x90>
 3d4:	fb840793          	addi	a5,s0,-72
 3d8:	00e78933          	add	s2,a5,a4
 3dc:	fff78993          	addi	s3,a5,-1
 3e0:	99ba                	add	s3,s3,a4
 3e2:	377d                	addiw	a4,a4,-1
 3e4:	1702                	slli	a4,a4,0x20
 3e6:	9301                	srli	a4,a4,0x20
 3e8:	40e989b3          	sub	s3,s3,a4
    putc(fd, buf[i]);
 3ec:	fff94583          	lbu	a1,-1(s2)
 3f0:	8526                	mv	a0,s1
 3f2:	f5dff0ef          	jal	ra,34e <putc>
  while(--i >= 0)
 3f6:	197d                	addi	s2,s2,-1
 3f8:	ff391ae3          	bne	s2,s3,3ec <printint+0x80>
}
 3fc:	60a6                	ld	ra,72(sp)
 3fe:	6406                	ld	s0,64(sp)
 400:	74e2                	ld	s1,56(sp)
 402:	7942                	ld	s2,48(sp)
 404:	79a2                	ld	s3,40(sp)
 406:	6161                	addi	sp,sp,80
 408:	8082                	ret
    x = -xx;
 40a:	40b005bb          	negw	a1,a1
    neg = 1;
 40e:	4885                	li	a7,1
    x = -xx;
 410:	bf9d                	j	386 <printint+0x1a>

0000000000000412 <vprintf>:
}

// Print to the given fd. Only understands %d, %x, %p, %c, %s.
void
vprintf(int fd, const char *fmt, va_list ap)
{
 412:	7119                	addi	sp,sp,-128
 414:	fc86                	sd	ra,120(sp)
 416:	f8a2                	sd	s0,112(sp)
 418:	f4a6                	sd	s1,104(sp)
 41a:	f0ca                	sd	s2,96(sp)
 41c:	ecce                	sd	s3,88(sp)
 41e:	e8d2                	sd	s4,80(sp)
 420:	e4d6                	sd	s5,72(sp)
 422:	e0da                	sd	s6,64(sp)
 424:	fc5e                	sd	s7,56(sp)
 426:	f862                	sd	s8,48(sp)
 428:	f466                	sd	s9,40(sp)
 42a:	f06a                	sd	s10,32(sp)
 42c:	ec6e                	sd	s11,24(sp)
 42e:	0100                	addi	s0,sp,128
  char *s;
  int c0, c1, c2, i, state;

  state = 0;
  for(i = 0; fmt[i]; i++){
 430:	0005c903          	lbu	s2,0(a1)
 434:	24090c63          	beqz	s2,68c <vprintf+0x27a>
 438:	8b2a                	mv	s6,a0
 43a:	8a2e                	mv	s4,a1
 43c:	8bb2                	mv	s7,a2
  state = 0;
 43e:	4981                	li	s3,0
  for(i = 0; fmt[i]; i++){
 440:	4481                	li	s1,0
 442:	4701                	li	a4,0
      if(c0 == '%'){
        state = '%';
      } else {
        putc(fd, c0);
      }
    } else if(state == '%'){
 444:	02500a93          	li	s5,37
      c1 = c2 = 0;
      if(c0) c1 = fmt[i+1] & 0xff;
      if(c1) c2 = fmt[i+2] & 0xff;
      if(c0 == 'd'){
 448:	06400c13          	li	s8,100
        printint(fd, va_arg(ap, int), 10, 1);
      } else if(c0 == 'l' && c1 == 'd'){
 44c:	06c00d13          	li	s10,108
        printint(fd, va_arg(ap, uint64), 10, 1);
        i += 1;
      } else if(c0 == 'l' && c1 == 'l' && c2 == 'd'){
        printint(fd, va_arg(ap, uint64), 10, 1);
        i += 2;
      } else if(c0 == 'u'){
 450:	07500d93          	li	s11,117
    putc(fd, digits[x >> (sizeof(uint64) * 8 - 4)]);
 454:	00000c97          	auipc	s9,0x0
 458:	424c8c93          	addi	s9,s9,1060 # 878 <digits>
 45c:	a005                	j	47c <vprintf+0x6a>
        putc(fd, c0);
 45e:	85ca                	mv	a1,s2
 460:	855a                	mv	a0,s6
 462:	eedff0ef          	jal	ra,34e <putc>
 466:	a019                	j	46c <vprintf+0x5a>
    } else if(state == '%'){
 468:	03598263          	beq	s3,s5,48c <vprintf+0x7a>
  for(i = 0; fmt[i]; i++){
 46c:	2485                	addiw	s1,s1,1
 46e:	8726                	mv	a4,s1
 470:	009a07b3          	add	a5,s4,s1
 474:	0007c903          	lbu	s2,0(a5)
 478:	20090a63          	beqz	s2,68c <vprintf+0x27a>
    c0 = fmt[i] & 0xff;
 47c:	0009079b          	sext.w	a5,s2
    if(state == 0){
 480:	fe0994e3          	bnez	s3,468 <vprintf+0x56>
      if(c0 == '%'){
 484:	fd579de3          	bne	a5,s5,45e <vprintf+0x4c>
        state = '%';
 488:	89be                	mv	s3,a5
 48a:	b7cd                	j	46c <vprintf+0x5a>
      if(c0) c1 = fmt[i+1] & 0xff;
 48c:	c3c1                	beqz	a5,50c <vprintf+0xfa>
 48e:	00ea06b3          	add	a3,s4,a4
 492:	0016c683          	lbu	a3,1(a3)
      c1 = c2 = 0;
 496:	8636                	mv	a2,a3
      if(c1) c2 = fmt[i+2] & 0xff;
 498:	c681                	beqz	a3,4a0 <vprintf+0x8e>
 49a:	9752                	add	a4,a4,s4
 49c:	00274603          	lbu	a2,2(a4)
      if(c0 == 'd'){
 4a0:	03878e63          	beq	a5,s8,4dc <vprintf+0xca>
      } else if(c0 == 'l' && c1 == 'd'){
 4a4:	05a78863          	beq	a5,s10,4f4 <vprintf+0xe2>
      } else if(c0 == 'u'){
 4a8:	0db78b63          	beq	a5,s11,57e <vprintf+0x16c>
        printint(fd, va_arg(ap, uint64), 10, 0);
        i += 1;
      } else if(c0 == 'l' && c1 == 'l' && c2 == 'u'){
        printint(fd, va_arg(ap, uint64), 10, 0);
        i += 2;
      } else if(c0 == 'x'){
 4ac:	07800713          	li	a4,120
 4b0:	10e78d63          	beq	a5,a4,5ca <vprintf+0x1b8>
        printint(fd, va_arg(ap, uint64), 16, 0);
        i += 1;
      } else if(c0 == 'l' && c1 == 'l' && c2 == 'x'){
        printint(fd, va_arg(ap, uint64), 16, 0);
        i += 2;
      } else if(c0 == 'p'){
 4b4:	07000713          	li	a4,112
 4b8:	14e78263          	beq	a5,a4,5fc <vprintf+0x1ea>
        printptr(fd, va_arg(ap, uint64));
      } else if(c0 == 'c'){
 4bc:	06300713          	li	a4,99
 4c0:	16e78f63          	beq	a5,a4,63e <vprintf+0x22c>
        putc(fd, va_arg(ap, uint32));
      } else if(c0 == 's'){
 4c4:	07300713          	li	a4,115
 4c8:	18e78563          	beq	a5,a4,652 <vprintf+0x240>
        if((s = va_arg(ap, char*)) == 0)
          s = "(null)";
        for(; *s; s++)
          putc(fd, *s);
      } else if(c0 == '%'){
 4cc:	05579063          	bne	a5,s5,50c <vprintf+0xfa>
        putc(fd, '%');
 4d0:	85d6                	mv	a1,s5
 4d2:	855a                	mv	a0,s6
 4d4:	e7bff0ef          	jal	ra,34e <putc>
        // Unknown % sequence.  Print it to draw attention.
        putc(fd, '%');
        putc(fd, c0);
      }

      state = 0;
 4d8:	4981                	li	s3,0
 4da:	bf49                	j	46c <vprintf+0x5a>
        printint(fd, va_arg(ap, int), 10, 1);
 4dc:	008b8913          	addi	s2,s7,8
 4e0:	4685                	li	a3,1
 4e2:	4629                	li	a2,10
 4e4:	000ba583          	lw	a1,0(s7)
 4e8:	855a                	mv	a0,s6
 4ea:	e83ff0ef          	jal	ra,36c <printint>
 4ee:	8bca                	mv	s7,s2
      state = 0;
 4f0:	4981                	li	s3,0
 4f2:	bfad                	j	46c <vprintf+0x5a>
      } else if(c0 == 'l' && c1 == 'd'){
 4f4:	03868663          	beq	a3,s8,520 <vprintf+0x10e>
      } else if(c0 == 'l' && c1 == 'l' && c2 == 'd'){
 4f8:	05a68163          	beq	a3,s10,53a <vprintf+0x128>
      } else if(c0 == 'l' && c1 == 'u'){
 4fc:	09b68d63          	beq	a3,s11,596 <vprintf+0x184>
      } else if(c0 == 'l' && c1 == 'l' && c2 == 'u'){
 500:	03a68f63          	beq	a3,s10,53e <vprintf+0x12c>
      } else if(c0 == 'l' && c1 == 'x'){
 504:	07800793          	li	a5,120
 508:	0cf68d63          	beq	a3,a5,5e2 <vprintf+0x1d0>
        putc(fd, '%');
 50c:	85d6                	mv	a1,s5
 50e:	855a                	mv	a0,s6
 510:	e3fff0ef          	jal	ra,34e <putc>
        putc(fd, c0);
 514:	85ca                	mv	a1,s2
 516:	855a                	mv	a0,s6
 518:	e37ff0ef          	jal	ra,34e <putc>
      state = 0;
 51c:	4981                	li	s3,0
 51e:	b7b9                	j	46c <vprintf+0x5a>
        printint(fd, va_arg(ap, uint64), 10, 1);
 520:	008b8913          	addi	s2,s7,8
 524:	4685                	li	a3,1
 526:	4629                	li	a2,10
 528:	000bb583          	ld	a1,0(s7)
 52c:	855a                	mv	a0,s6
 52e:	e3fff0ef          	jal	ra,36c <printint>
        i += 1;
 532:	2485                	addiw	s1,s1,1
        printint(fd, va_arg(ap, uint64), 10, 1);
 534:	8bca                	mv	s7,s2
      state = 0;
 536:	4981                	li	s3,0
        i += 1;
 538:	bf15                	j	46c <vprintf+0x5a>
      } else if(c0 == 'l' && c1 == 'l' && c2 == 'd'){
 53a:	03860563          	beq	a2,s8,564 <vprintf+0x152>
      } else if(c0 == 'l' && c1 == 'l' && c2 == 'u'){
 53e:	07b60963          	beq	a2,s11,5b0 <vprintf+0x19e>
      } else if(c0 == 'l' && c1 == 'l' && c2 == 'x'){
 542:	07800793          	li	a5,120
 546:	fcf613e3          	bne	a2,a5,50c <vprintf+0xfa>
        printint(fd, va_arg(ap, uint64), 16, 0);
 54a:	008b8913          	addi	s2,s7,8
 54e:	4681                	li	a3,0
 550:	4641                	li	a2,16
 552:	000bb583          	ld	a1,0(s7)
 556:	855a                	mv	a0,s6
 558:	e15ff0ef          	jal	ra,36c <printint>
        i += 2;
 55c:	2489                	addiw	s1,s1,2
        printint(fd, va_arg(ap, uint64), 16, 0);
 55e:	8bca                	mv	s7,s2
      state = 0;
 560:	4981                	li	s3,0
        i += 2;
 562:	b729                	j	46c <vprintf+0x5a>
        printint(fd, va_arg(ap, uint64), 10, 1);
 564:	008b8913          	addi	s2,s7,8
 568:	4685                	li	a3,1
 56a:	4629                	li	a2,10
 56c:	000bb583          	ld	a1,0(s7)
 570:	855a                	mv	a0,s6
 572:	dfbff0ef          	jal	ra,36c <printint>
        i += 2;
 576:	2489                	addiw	s1,s1,2
        printint(fd, va_arg(ap, uint64), 10, 1);
 578:	8bca                	mv	s7,s2
      state = 0;
 57a:	4981                	li	s3,0
        i += 2;
 57c:	bdc5                	j	46c <vprintf+0x5a>
        printint(fd, va_arg(ap, uint32), 10, 0);
 57e:	008b8913          	addi	s2,s7,8
 582:	4681                	li	a3,0
 584:	4629                	li	a2,10
 586:	000be583          	lwu	a1,0(s7)
 58a:	855a                	mv	a0,s6
 58c:	de1ff0ef          	jal	ra,36c <printint>
 590:	8bca                	mv	s7,s2
      state = 0;
 592:	4981                	li	s3,0
 594:	bde1                	j	46c <vprintf+0x5a>
        printint(fd, va_arg(ap, uint64), 10, 0);
 596:	008b8913          	addi	s2,s7,8
 59a:	4681                	li	a3,0
 59c:	4629                	li	a2,10
 59e:	000bb583          	ld	a1,0(s7)
 5a2:	855a                	mv	a0,s6
 5a4:	dc9ff0ef          	jal	ra,36c <printint>
        i += 1;
 5a8:	2485                	addiw	s1,s1,1
        printint(fd, va_arg(ap, uint64), 10, 0);
 5aa:	8bca                	mv	s7,s2
      state = 0;
 5ac:	4981                	li	s3,0
        i += 1;
 5ae:	bd7d                	j	46c <vprintf+0x5a>
        printint(fd, va_arg(ap, uint64), 10, 0);
 5b0:	008b8913          	addi	s2,s7,8
 5b4:	4681                	li	a3,0
 5b6:	4629                	li	a2,10
 5b8:	000bb583          	ld	a1,0(s7)
 5bc:	855a                	mv	a0,s6
 5be:	dafff0ef          	jal	ra,36c <printint>
        i += 2;
 5c2:	2489                	addiw	s1,s1,2
        printint(fd, va_arg(ap, uint64), 10, 0);
 5c4:	8bca                	mv	s7,s2
      state = 0;
 5c6:	4981                	li	s3,0
        i += 2;
 5c8:	b555                	j	46c <vprintf+0x5a>
        printint(fd, va_arg(ap, uint32), 16, 0);
 5ca:	008b8913          	addi	s2,s7,8
 5ce:	4681                	li	a3,0
 5d0:	4641                	li	a2,16
 5d2:	000be583          	lwu	a1,0(s7)
 5d6:	855a                	mv	a0,s6
 5d8:	d95ff0ef          	jal	ra,36c <printint>
 5dc:	8bca                	mv	s7,s2
      state = 0;
 5de:	4981                	li	s3,0
 5e0:	b571                	j	46c <vprintf+0x5a>
        printint(fd, va_arg(ap, uint64), 16, 0);
 5e2:	008b8913          	addi	s2,s7,8
 5e6:	4681                	li	a3,0
 5e8:	4641                	li	a2,16
 5ea:	000bb583          	ld	a1,0(s7)
 5ee:	855a                	mv	a0,s6
 5f0:	d7dff0ef          	jal	ra,36c <printint>
        i += 1;
 5f4:	2485                	addiw	s1,s1,1
        printint(fd, va_arg(ap, uint64), 16, 0);
 5f6:	8bca                	mv	s7,s2
      state = 0;
 5f8:	4981                	li	s3,0
        i += 1;
 5fa:	bd8d                	j	46c <vprintf+0x5a>
        printptr(fd, va_arg(ap, uint64));
 5fc:	008b8793          	addi	a5,s7,8
 600:	f8f43423          	sd	a5,-120(s0)
 604:	000bb983          	ld	s3,0(s7)
  putc(fd, '0');
 608:	03000593          	li	a1,48
 60c:	855a                	mv	a0,s6
 60e:	d41ff0ef          	jal	ra,34e <putc>
  putc(fd, 'x');
 612:	07800593          	li	a1,120
 616:	855a                	mv	a0,s6
 618:	d37ff0ef          	jal	ra,34e <putc>
 61c:	4941                	li	s2,16
    putc(fd, digits[x >> (sizeof(uint64) * 8 - 4)]);
 61e:	03c9d793          	srli	a5,s3,0x3c
 622:	97e6                	add	a5,a5,s9
 624:	0007c583          	lbu	a1,0(a5)
 628:	855a                	mv	a0,s6
 62a:	d25ff0ef          	jal	ra,34e <putc>
  for (i = 0; i < (sizeof(uint64) * 2); i++, x <<= 4)
 62e:	0992                	slli	s3,s3,0x4
 630:	397d                	addiw	s2,s2,-1
 632:	fe0916e3          	bnez	s2,61e <vprintf+0x20c>
        printptr(fd, va_arg(ap, uint64));
 636:	f8843b83          	ld	s7,-120(s0)
      state = 0;
 63a:	4981                	li	s3,0
 63c:	bd05                	j	46c <vprintf+0x5a>
        putc(fd, va_arg(ap, uint32));
 63e:	008b8913          	addi	s2,s7,8
 642:	000bc583          	lbu	a1,0(s7)
 646:	855a                	mv	a0,s6
 648:	d07ff0ef          	jal	ra,34e <putc>
 64c:	8bca                	mv	s7,s2
      state = 0;
 64e:	4981                	li	s3,0
 650:	bd31                	j	46c <vprintf+0x5a>
        if((s = va_arg(ap, char*)) == 0)
 652:	008b8993          	addi	s3,s7,8
 656:	000bb903          	ld	s2,0(s7)
 65a:	00090f63          	beqz	s2,678 <vprintf+0x266>
        for(; *s; s++)
 65e:	00094583          	lbu	a1,0(s2)
 662:	c195                	beqz	a1,686 <vprintf+0x274>
          putc(fd, *s);
 664:	855a                	mv	a0,s6
 666:	ce9ff0ef          	jal	ra,34e <putc>
        for(; *s; s++)
 66a:	0905                	addi	s2,s2,1
 66c:	00094583          	lbu	a1,0(s2)
 670:	f9f5                	bnez	a1,664 <vprintf+0x252>
        if((s = va_arg(ap, char*)) == 0)
 672:	8bce                	mv	s7,s3
      state = 0;
 674:	4981                	li	s3,0
 676:	bbdd                	j	46c <vprintf+0x5a>
          s = "(null)";
 678:	00000917          	auipc	s2,0x0
 67c:	1f890913          	addi	s2,s2,504 # 870 <malloc+0xe2>
        for(; *s; s++)
 680:	02800593          	li	a1,40
 684:	b7c5                	j	664 <vprintf+0x252>
        if((s = va_arg(ap, char*)) == 0)
 686:	8bce                	mv	s7,s3
      state = 0;
 688:	4981                	li	s3,0
 68a:	b3cd                	j	46c <vprintf+0x5a>
    }
  }
}
 68c:	70e6                	ld	ra,120(sp)
 68e:	7446                	ld	s0,112(sp)
 690:	74a6                	ld	s1,104(sp)
 692:	7906                	ld	s2,96(sp)
 694:	69e6                	ld	s3,88(sp)
 696:	6a46                	ld	s4,80(sp)
 698:	6aa6                	ld	s5,72(sp)
 69a:	6b06                	ld	s6,64(sp)
 69c:	7be2                	ld	s7,56(sp)
 69e:	7c42                	ld	s8,48(sp)
 6a0:	7ca2                	ld	s9,40(sp)
 6a2:	7d02                	ld	s10,32(sp)
 6a4:	6de2                	ld	s11,24(sp)
 6a6:	6109                	addi	sp,sp,128
 6a8:	8082                	ret

00000000000006aa <fprintf>:

void
fprintf(int fd, const char *fmt, ...)
{
 6aa:	715d                	addi	sp,sp,-80
 6ac:	ec06                	sd	ra,24(sp)
 6ae:	e822                	sd	s0,16(sp)
 6b0:	1000                	addi	s0,sp,32
 6b2:	e010                	sd	a2,0(s0)
 6b4:	e414                	sd	a3,8(s0)
 6b6:	e818                	sd	a4,16(s0)
 6b8:	ec1c                	sd	a5,24(s0)
 6ba:	03043023          	sd	a6,32(s0)
 6be:	03143423          	sd	a7,40(s0)
  va_list ap;

  va_start(ap, fmt);
 6c2:	fe843423          	sd	s0,-24(s0)
  vprintf(fd, fmt, ap);
 6c6:	8622                	mv	a2,s0
 6c8:	d4bff0ef          	jal	ra,412 <vprintf>
}
 6cc:	60e2                	ld	ra,24(sp)
 6ce:	6442                	ld	s0,16(sp)
 6d0:	6161                	addi	sp,sp,80
 6d2:	8082                	ret

00000000000006d4 <printf>:

void
printf(const char *fmt, ...)
{
 6d4:	711d                	addi	sp,sp,-96
 6d6:	ec06                	sd	ra,24(sp)
 6d8:	e822                	sd	s0,16(sp)
 6da:	1000                	addi	s0,sp,32
 6dc:	e40c                	sd	a1,8(s0)
 6de:	e810                	sd	a2,16(s0)
 6e0:	ec14                	sd	a3,24(s0)
 6e2:	f018                	sd	a4,32(s0)
 6e4:	f41c                	sd	a5,40(s0)
 6e6:	03043823          	sd	a6,48(s0)
 6ea:	03143c23          	sd	a7,56(s0)
  va_list ap;

  va_start(ap, fmt);
 6ee:	00840613          	addi	a2,s0,8
 6f2:	fec43423          	sd	a2,-24(s0)
  vprintf(1, fmt, ap);
 6f6:	85aa                	mv	a1,a0
 6f8:	4505                	li	a0,1
 6fa:	d19ff0ef          	jal	ra,412 <vprintf>
}
 6fe:	60e2                	ld	ra,24(sp)
 700:	6442                	ld	s0,16(sp)
 702:	6125                	addi	sp,sp,96
 704:	8082                	ret

0000000000000706 <free>:
static Header base;
static Header *freep;

void
free(void *ap)
{
 706:	1141                	addi	sp,sp,-16
 708:	e422                	sd	s0,8(sp)
 70a:	0800                	addi	s0,sp,16
  Header *bp, *p;

  bp = (Header*)ap - 1;
 70c:	ff050693          	addi	a3,a0,-16
  for(p = freep; !(bp > p && bp < p->s.ptr); p = p->s.ptr)
 710:	00001797          	auipc	a5,0x1
 714:	8f07b783          	ld	a5,-1808(a5) # 1000 <freep>
 718:	a805                	j	748 <free+0x42>
    if(p >= p->s.ptr && (bp > p || bp < p->s.ptr))
      break;
  if(bp + bp->s.size == p->s.ptr){
    bp->s.size += p->s.ptr->s.size;
 71a:	4618                	lw	a4,8(a2)
 71c:	9db9                	addw	a1,a1,a4
 71e:	feb52c23          	sw	a1,-8(a0)
    bp->s.ptr = p->s.ptr->s.ptr;
 722:	6398                	ld	a4,0(a5)
 724:	6318                	ld	a4,0(a4)
 726:	fee53823          	sd	a4,-16(a0)
 72a:	a091                	j	76e <free+0x68>
  } else
    bp->s.ptr = p->s.ptr;
  if(p + p->s.size == bp){
    p->s.size += bp->s.size;
 72c:	ff852703          	lw	a4,-8(a0)
 730:	9e39                	addw	a2,a2,a4
 732:	c790                	sw	a2,8(a5)
    p->s.ptr = bp->s.ptr;
 734:	ff053703          	ld	a4,-16(a0)
 738:	e398                	sd	a4,0(a5)
 73a:	a099                	j	780 <free+0x7a>
    if(p >= p->s.ptr && (bp > p || bp < p->s.ptr))
 73c:	6398                	ld	a4,0(a5)
 73e:	00e7e463          	bltu	a5,a4,746 <free+0x40>
 742:	00e6ea63          	bltu	a3,a4,756 <free+0x50>
{
 746:	87ba                	mv	a5,a4
  for(p = freep; !(bp > p && bp < p->s.ptr); p = p->s.ptr)
 748:	fed7fae3          	bgeu	a5,a3,73c <free+0x36>
 74c:	6398                	ld	a4,0(a5)
 74e:	00e6e463          	bltu	a3,a4,756 <free+0x50>
    if(p >= p->s.ptr && (bp > p || bp < p->s.ptr))
 752:	fee7eae3          	bltu	a5,a4,746 <free+0x40>
  if(bp + bp->s.size == p->s.ptr){
 756:	ff852583          	lw	a1,-8(a0)
 75a:	6390                	ld	a2,0(a5)
 75c:	02059713          	slli	a4,a1,0x20
 760:	9301                	srli	a4,a4,0x20
 762:	0712                	slli	a4,a4,0x4
 764:	9736                	add	a4,a4,a3
 766:	fae60ae3          	beq	a2,a4,71a <free+0x14>
    bp->s.ptr = p->s.ptr;
 76a:	fec53823          	sd	a2,-16(a0)
  if(p + p->s.size == bp){
 76e:	4790                	lw	a2,8(a5)
 770:	02061713          	slli	a4,a2,0x20
 774:	9301                	srli	a4,a4,0x20
 776:	0712                	slli	a4,a4,0x4
 778:	973e                	add	a4,a4,a5
 77a:	fae689e3          	beq	a3,a4,72c <free+0x26>
  } else
    p->s.ptr = bp;
 77e:	e394                	sd	a3,0(a5)
  freep = p;
 780:	00001717          	auipc	a4,0x1
 784:	88f73023          	sd	a5,-1920(a4) # 1000 <freep>
}
 788:	6422                	ld	s0,8(sp)
 78a:	0141                	addi	sp,sp,16
 78c:	8082                	ret

000000000000078e <malloc>:
  return freep;
}

void*
malloc(uint nbytes)
{
 78e:	7139                	addi	sp,sp,-64
 790:	fc06                	sd	ra,56(sp)
 792:	f822                	sd	s0,48(sp)
 794:	f426                	sd	s1,40(sp)
 796:	f04a                	sd	s2,32(sp)
 798:	ec4e                	sd	s3,24(sp)
 79a:	e852                	sd	s4,16(sp)
 79c:	e456                	sd	s5,8(sp)
 79e:	e05a                	sd	s6,0(sp)
 7a0:	0080                	addi	s0,sp,64
  Header *p, *prevp;
  uint nunits;

  nunits = (nbytes + sizeof(Header) - 1)/sizeof(Header) + 1;
 7a2:	02051493          	slli	s1,a0,0x20
 7a6:	9081                	srli	s1,s1,0x20
 7a8:	04bd                	addi	s1,s1,15
 7aa:	8091                	srli	s1,s1,0x4
 7ac:	0014899b          	addiw	s3,s1,1
 7b0:	0485                	addi	s1,s1,1
  if((prevp = freep) == 0){
 7b2:	00001517          	auipc	a0,0x1
 7b6:	84e53503          	ld	a0,-1970(a0) # 1000 <freep>
 7ba:	c515                	beqz	a0,7e6 <malloc+0x58>
    base.s.ptr = freep = prevp = &base;
    base.s.size = 0;
  }
  for(p = prevp->s.ptr; ; prevp = p, p = p->s.ptr){
 7bc:	611c                	ld	a5,0(a0)
    if(p->s.size >= nunits){
 7be:	4798                	lw	a4,8(a5)
 7c0:	02977f63          	bgeu	a4,s1,7fe <malloc+0x70>
 7c4:	8a4e                	mv	s4,s3
 7c6:	0009871b          	sext.w	a4,s3
 7ca:	6685                	lui	a3,0x1
 7cc:	00d77363          	bgeu	a4,a3,7d2 <malloc+0x44>
 7d0:	6a05                	lui	s4,0x1
 7d2:	000a0b1b          	sext.w	s6,s4
  p = sbrk(nu * sizeof(Header));
 7d6:	004a1a1b          	slliw	s4,s4,0x4
        p->s.size = nunits;
      }
      freep = prevp;
      return (void*)(p + 1);
    }
    if(p == freep)
 7da:	00001917          	auipc	s2,0x1
 7de:	82690913          	addi	s2,s2,-2010 # 1000 <freep>
  if(p == SBRK_ERROR)
 7e2:	5afd                	li	s5,-1
 7e4:	a0bd                	j	852 <malloc+0xc4>
    base.s.ptr = freep = prevp = &base;
 7e6:	00001797          	auipc	a5,0x1
 7ea:	82a78793          	addi	a5,a5,-2006 # 1010 <base>
 7ee:	00001717          	auipc	a4,0x1
 7f2:	80f73923          	sd	a5,-2030(a4) # 1000 <freep>
 7f6:	e39c                	sd	a5,0(a5)
    base.s.size = 0;
 7f8:	0007a423          	sw	zero,8(a5)
    if(p->s.size >= nunits){
 7fc:	b7e1                	j	7c4 <malloc+0x36>
      if(p->s.size == nunits)
 7fe:	02e48b63          	beq	s1,a4,834 <malloc+0xa6>
        p->s.size -= nunits;
 802:	4137073b          	subw	a4,a4,s3
 806:	c798                	sw	a4,8(a5)
        p += p->s.size;
 808:	1702                	slli	a4,a4,0x20
 80a:	9301                	srli	a4,a4,0x20
 80c:	0712                	slli	a4,a4,0x4
 80e:	97ba                	add	a5,a5,a4
        p->s.size = nunits;
 810:	0137a423          	sw	s3,8(a5)
      freep = prevp;
 814:	00000717          	auipc	a4,0x0
 818:	7ea73623          	sd	a0,2028(a4) # 1000 <freep>
      return (void*)(p + 1);
 81c:	01078513          	addi	a0,a5,16
      if((p = morecore(nunits)) == 0)
        return 0;
  }
}
 820:	70e2                	ld	ra,56(sp)
 822:	7442                	ld	s0,48(sp)
 824:	74a2                	ld	s1,40(sp)
 826:	7902                	ld	s2,32(sp)
 828:	69e2                	ld	s3,24(sp)
 82a:	6a42                	ld	s4,16(sp)
 82c:	6aa2                	ld	s5,8(sp)
 82e:	6b02                	ld	s6,0(sp)
 830:	6121                	addi	sp,sp,64
 832:	8082                	ret
        prevp->s.ptr = p->s.ptr;
 834:	6398                	ld	a4,0(a5)
 836:	e118                	sd	a4,0(a0)
 838:	bff1                	j	814 <malloc+0x86>
  hp->s.size = nu;
 83a:	01652423          	sw	s6,8(a0)
  free((void*)(hp + 1));
 83e:	0541                	addi	a0,a0,16
 840:	ec7ff0ef          	jal	ra,706 <free>
  return freep;
 844:	00093503          	ld	a0,0(s2)
      if((p = morecore(nunits)) == 0)
 848:	dd61                	beqz	a0,820 <malloc+0x92>
  for(p = prevp->s.ptr; ; prevp = p, p = p->s.ptr){
 84a:	611c                	ld	a5,0(a0)
    if(p->s.size >= nunits){
 84c:	4798                	lw	a4,8(a5)
 84e:	fa9778e3          	bgeu	a4,s1,7fe <malloc+0x70>
    if(p == freep)
 852:	00093703          	ld	a4,0(s2)
 856:	853e                	mv	a0,a5
 858:	fef719e3          	bne	a4,a5,84a <malloc+0xbc>
  p = sbrk(nu * sizeof(Header));
 85c:	8552                	mv	a0,s4
 85e:	a1dff0ef          	jal	ra,27a <sbrk>
  if(p == SBRK_ERROR)
 862:	fd551ce3          	bne	a0,s5,83a <malloc+0xac>
        return 0;
 866:	4501                	li	a0,0
 868:	bf65                	j	820 <malloc+0x92>
